(lp0
(dp1
Vdomain
p2
V.freelancer.com
p3
sVsecure
p4
I00
sVvalue
p5
V138759908.BePKZE1sQ3uuAHUp7JoJ1Q$294858-480:0
p6
sVexpiry
p7
NsVpath
p8
V/
p9
sVhttpOnly
p10
I00
sVname
p11
V__utmx
p12
sa(dp13
Vdomain
p14
V.freelancer.com
p15
sVsecure
p16
I00
sVvalue
p17
V138759908.BePKZE1sQ3uuAHUp7JoJ1Q$294858-480:1479297326:15552000
p18
sVexpiry
p19
NsVpath
p20
g9
sVhttpOnly
p21
I00
sVname
p22
V__utmxx
p23
sa(dp24
Vdomain
p25
Vwww.freelancer.com
p26
sVsecure
p27
I00
sVvalue
p28
V1
p29
sVexpiry
p30
NsVpath
p31
g9
sVhttpOnly
p32
I00
sVname
p33
V__utmx_k_124688211
p34
sa(dp35
Vdomain
p36
Vwww.freelancer.com
p37
sVsecure
p38
I00
sVvalue
p39
Vcd1fbc9e-c22d-5d6a-9aa1-ac88250d26c9
p40
sVexpiry
p41
NsVpath
p42
g9
sVhttpOnly
p43
I00
sVname
p44
V_tracking_session
p45
sa(dp46
Vdomain
p47
V.freelancer.com
p48
sVsecure
p49
I00
sVvalue
p50
V138759908.1009047338.1479297332.1479297332.1479297332.1
p51
sVexpiry
p52
NsVpath
p53
g9
sVhttpOnly
p54
I00
sVname
p55
V__utma
p56
sa(dp57
Vdomain
p58
V.freelancer.com
p59
sVsecure
p60
I00
sVvalue
p61
V138759908
p62
sVexpiry
p63
NsVpath
p64
g9
sVhttpOnly
p65
I00
sVname
p66
V__utmc
p67
sa(dp68
Vdomain
p69
V.freelancer.com
p70
sVsecure
p71
I00
sVvalue
p72
V138759908.1479297332.1.1.utmcsr=(direct)|utmccn=(direct)|utmcmd=(none)
p73
sVexpiry
p74
NsVpath
p75
g9
sVhttpOnly
p76
I00
sVname
p77
V__utmz
p78
sa(dp79
Vdomain
p80
V.freelancer.com
p81
sVsecure
p82
I00
sVvalue
p83
g29
sVexpiry
p84
NsVpath
p85
g9
sVhttpOnly
p86
I00
sVname
p87
V__utmt
p88
sa(dp89
Vdomain
p90
V.freelancer.com
p91
sVsecure
p92
I00
sVvalue
p93
V138759908.1.10.1479297332
p94
sVexpiry
p95
NsVpath
p96
g9
sVhttpOnly
p97
I00
sVname
p98
V__utmb
p99
sa(dp100
Vdomain
p101
V.freelancer.com
p102
sVsecure
p103
I00
sVvalue
p104
V495336bf1586cfdf3081f597f61
p105
sVexpiry
p106
NsVpath
p107
g9
sVhttpOnly
p108
I00
sVname
p109
V__asc
p110
sa(dp111
Vdomain
p112
V.freelancer.com
p113
sVsecure
p114
I00
sVvalue
p115
V495336bf1586cfdf3081f597f61
p116
sVexpiry
p117
NsVpath
p118
g9
sVhttpOnly
p119
I00
sVname
p120
V__auc
p121
sa(dp122
Vdomain
p123
V.freelancer.com
p124
sVsecure
p125
I00
sVvalue
p126
VGA1.2.cd1fbc9e-c22d-5d6a-9aa1-ac88250d26c9
p127
sVexpiry
p128
NsVpath
p129
g9
sVhttpOnly
p130
I00
sVname
p131
V_ga
p132
sa(dp133
Vdomain
p134
V.freelancer.com
p135
sVsecure
p136
I00
sVvalue
p137
g29
sVexpiry
p138
NsVpath
p139
g9
sVhttpOnly
p140
I00
sVname
p141
V_dc_gtm_UA-39996498-2
p142
sa(dp143
Vdomain
p144
Vwww.freelancer.com
p145
sVsecure
p146
I00
sVvalue
p147
V%7B%22visits%22%3A1%2C%22start%22%3A1479297335468%2C%22last_visit%22%3A1479297335468%2C%22url%22%3A%22https%3A%2F%2Fwww.freelancer.com%2F%3Futm_expid%3D294858-480.BePKZE1sQ3uuAHUp7JoJ1Q.0%23%22%2C%22path%22%3A%22%2F%22%2C%22referrer%22%3A%22https%3A%2F%2Fwww.freelancer.com%2F%22%2C%22referrer_info%22%3A%7B%22host%22%3A%22www.freelancer.com%22%2C%22path%22%3A%22%2F%22%2C%22protocol%22%3A%22https%3A%22%2C%22port%22%3A80%2C%22search%22%3A%22%22%2C%22query%22%3A%7B%7D%7D%2C%22search%22%3A%7B%22engine%22%3Anull%2C%22query%22%3Anull%7D%2C%22version%22%3A0.4%7D
p148
sVexpiry
p149
NsVpath
p150
g9
sVhttpOnly
p151
I00
sVname
p152
Vfirst_session
p153
sa(dp154
Vdomain
p155
Vwww.freelancer.com
p156
sVsecure
p157
I00
sVvalue
p158
Vaaec20528e09f9f86a3e404f771afdbd1d246c3d0f321cf72f5563c4b7b1492535161c26017c0731
p159
sVexpiry
p160
NsVpath
p161
g9
sVhttpOnly
p162
I00
sVname
p163
Vsession2
p164
sa(dp165
Vdomain
p166
V.freelancer.com
p167
sVsecure
p168
I00
sVvalue
p169
Vlogin-bt
p170
sVexpiry
p171
NsVpath
p172
g9
sVhttpOnly
p173
I00
sVname
p174
V_gali
p175
sa(dp176
Vdomain
p177
Vwww.freelancer.com
p178
sVsecure
p179
I00
sVvalue
p180
VkJrqXEIAjVAeVuAEbByvfgfdrDdSYCfYnGItR95p2x1FATI5JIQAvtdKBPs3XzfH
p181
sVexpiry
p182
NsVpath
p183
g9
sVhttpOnly
p184
I00
sVname
p185
VXSRF-TOKEN
p186
sa(dp187
Vdomain
p188
V.freelancer.com
p189
sVsecure
p190
I00
sVvalue
p191
V21958168
p192
sVexpiry
p193
NsVpath
p194
g9
sVhttpOnly
p195
I00
sVname
p196
VGETAFREE_USER_ID
p197
sa(dp198
Vdomain
p199
V.freelancer.com
p200
sVsecure
p201
I00
sVvalue
p202
V1522b6135f53b936e30a4647d801dab6
p203
sVexpiry
p204
NsVpath
p205
g9
sVhttpOnly
p206
I00
sVname
p207
VGETAFREE_AUTH_HASH
p208
sa(dp209
Vdomain
p210
V.freelancer.com
p211
sVsecure
p212
I00
sVvalue
p213
VenuRSGhxC5g4yfGCpmBQJR3H2H9YgmIHho26TJnZDvs%3D
p214
sVexpiry
p215
NsVpath
p216
g9
sVhttpOnly
p217
I00
sVname
p218
VGETAFREE_AUTH_HASH_V2
p219
sa(dp220
Vdomain
p221
V.freelancer.com
p222
sVsecure
p223
I00
sVvalue
p224
V21958168_3gtOxVL7KbrTdZMUzQAI_ea578c9cf1d538002c59b45b004b23dec1a09fcd
p225
sVexpiry
p226
NsVpath
p227
g9
sVhttpOnly
p228
I00
sVname
p229
VGETAFREEFASTLOGIN_FENCE
p230
sa(dp231
Vdomain
p232
V.freelancer.com
p233
sVsecure
p234
I00
sVvalue
p235
Vtrue
p236
sVexpiry
p237
NsVpath
p238
g9
sVhttpOnly
p239
I00
sVname
p240
VGETAFREE_NOTNEW
p241
sa(dp242
Vdomain
p243
V.freelancer.com
p244
sVsecure
p245
I00
sVvalue
p246
Ven
p247
sVexpiry
p248
NsVpath
p249
g9
sVhttpOnly
p250
I00
sVname
p251
VGETAFREE_LANGUAGE
p252
sa.